; Function Attrs: nounwind uwtable
define ptr @l_Lean_Server_Test_Cancel___aux__Lean__Server__Test__Cancel______elabRules__Lean__Server__Test__Cancel__tacticUnblock__1___lambda__1(ptr readnone captures(none) %0, ptr readnone captures(none) %1, ptr readnone captures(none) %2, ptr readnone captures(none) %3, ptr readnone captures(none) %4, ptr readnone captures(none) %5, ptr readnone captures(none) %6, ptr readnone captures(none) %7, ptr readnone captures(none) %8, ptr noundef %9) local_unnamed_addr #0 {
  %11 = load ptr, ptr @l_Lean_Loop_forIn_loop___at_Lean_Server_Test_Cancel___aux__Lean__Server__Test__Cancel______elabRules__Lean__Server__Test__Cancel__tacticWait__for__unblock__1___spec__1___rarg___closed__1, align 8, !tbaa !9
  %12 = tail call ptr @lean_st_ref_set(ptr noundef %11, ptr noundef nonnull inttoptr (i64 3 to ptr), ptr noundef %9) #6
  %.val = load i32, ptr %12, align 4, !tbaa !4
  %13 = icmp eq i32 %.val, 1
  br i1 %13, label %50, label %14

14:                                               ; preds = %10
  %15 = getelementptr inbounds nuw i8, ptr %12, i64 8
  %16 = load ptr, ptr %15, align 8, !tbaa !9
  %17 = getelementptr inbounds nuw i8, ptr %12, i64 16
  %18 = load ptr, ptr %17, align 8, !tbaa !9
  %19 = ptrtoint ptr %18 to i64
  %20 = and i64 %19, 1
  %.not = icmp eq i64 %20, 0
  br i1 %.not, label %21, label %lean_inc.exit17

21:                                               ; preds = %14
  %.val.i = load i32, ptr %18, align 4, !tbaa !4
  %22 = icmp sgt i32 %.val.i, 0
  br i1 %22, label %23, label %25, !prof !11

23:                                               ; preds = %21
  %24 = add nuw i32 %.val.i, 1
  store i32 %24, ptr %18, align 4, !tbaa !4
  br label %lean_inc.exit17

25:                                               ; preds = %21
  %.not.i18 = icmp eq i32 %.val.i, 0
  br i1 %.not.i18, label %lean_inc.exit17, label %26

26:                                               ; preds = %25
  tail call void @lean_inc_ref_cold(ptr noundef nonnull %18) #6
  br label %lean_inc.exit17

lean_inc.exit17:                                  ; preds = %26, %25, %23, %14
  %27 = ptrtoint ptr %16 to i64
  %28 = and i64 %27, 1
  %.not22 = icmp eq i64 %28, 0
  br i1 %.not22, label %29, label %lean_inc.exit

29:                                               ; preds = %lean_inc.exit17
  %.val.i19 = load i32, ptr %16, align 4, !tbaa !4
  %30 = icmp sgt i32 %.val.i19, 0
  br i1 %30, label %31, label %33, !prof !11

31:                                               ; preds = %29
  %32 = add nuw i32 %.val.i19, 1
  store i32 %32, ptr %16, align 4, !tbaa !4
  br label %lean_inc.exit

33:                                               ; preds = %29
  %.not.i20 = icmp eq i32 %.val.i19, 0
  br i1 %.not.i20, label %lean_inc.exit, label %34

34:                                               ; preds = %33
  tail call void @lean_inc_ref_cold(ptr noundef nonnull %16) #6
  br label %lean_inc.exit

lean_inc.exit:                                    ; preds = %34, %33, %31, %lean_inc.exit17
  %35 = ptrtoint ptr %12 to i64
  %36 = and i64 %35, 1
  %.not23 = icmp eq i64 %36, 0
  br i1 %.not23, label %37, label %lean_dec.exit

37:                                               ; preds = %lean_inc.exit
  %38 = load i32, ptr %12, align 4, !tbaa !4
  %39 = icmp sgt i32 %38, 1
  br i1 %39, label %40, label %42, !prof !11

40:                                               ; preds = %37
  %41 = add nsw i32 %38, -1
  store i32 %41, ptr %12, align 4, !tbaa !4
  br label %lean_dec.exit

42:                                               ; preds = %37
  %.not.i = icmp eq i32 %38, 0
  br i1 %.not.i, label %lean_dec.exit, label %43

43:                                               ; preds = %42
  tail call void @lean_dec_ref_cold(ptr noundef nonnull %12) #6
  br label %lean_dec.exit

lean_dec.exit:                                    ; preds = %43, %42, %40, %lean_inc.exit
  tail call void @lean_inc_heartbeat() #6
  %44 = tail call noalias ptr @mi_malloc_small(i64 noundef 24) #6
  %45 = icmp eq ptr %44, null
  br i1 %45, label %46, label %lean_alloc_ctor.exit

46:                                               ; preds = %lean_dec.exit
  tail call void @lean_internal_panic_out_of_memory() #7
  unreachable

lean_alloc_ctor.exit:                             ; preds = %lean_dec.exit
  %47 = getelementptr inbounds nuw i8, ptr %44, i64 4
  store i32 1, ptr %44, align 4, !tbaa !4
  store i32 131096, ptr %47, align 4
  %48 = getelementptr inbounds nuw i8, ptr %44, i64 8
  store ptr %16, ptr %48, align 8, !tbaa !9
  %49 = getelementptr inbounds nuw i8, ptr %44, i64 16
  store ptr %18, ptr %49, align 8, !tbaa !9
  br label %50

50:                                               ; preds = %10, %lean_alloc_ctor.exit
  %.0 = phi ptr [ %44, %lean_alloc_ctor.exit ], [ %12, %10 ]
  ret ptr %.0
}